target datalayout = "e-m:e-p270:32:32-p271:32:32-p272:64:64-i64:64-i128:128-f80:128-n8:16:32:64-S128"
target triple = "x86_64-pc-linux-gnu"

%"struct.cv::legacy::tracking::TrackerBoosting::Params" = type { i32, float, float, i32, i32 }

; Function Attrs: mustprogress nounwind uwtable
define void @_ZN2cv6legacy8tracking15TrackerBoosting6ParamsC2Ev(ptr noundef nonnull align 4 dereferenceable(20) %0) unnamed_addr #4 align 2 {
  %2 = alloca ptr, align 8
  store ptr %0, ptr %2, align 8, !tbaa !3
  %3 = load ptr, ptr %2, align 8
  %4 = getelementptr inbounds nuw %"struct.cv::legacy::tracking::TrackerBoosting::Params", ptr %3, i32 0, i32 0
  store i32 100, ptr %4, align 4, !tbaa !8
  %5 = getelementptr inbounds nuw %"struct.cv::legacy::tracking::TrackerBoosting::Params", ptr %3, i32 0, i32 1
  store float 0x3FEFAE1480000000, ptr %5, align 4, !tbaa !12
  %6 = getelementptr inbounds nuw %"struct.cv::legacy::tracking::TrackerBoosting::Params", ptr %3, i32 0, i32 2
  store float 0x3FFCCCCCC0000000, ptr %6, align 4, !tbaa !13
  %7 = getelementptr inbounds nuw %"struct.cv::legacy::tracking::TrackerBoosting::Params", ptr %3, i32 0, i32 3
  store i32 50, ptr %7, align 4, !tbaa !14
  %8 = getelementptr inbounds nuw %"struct.cv::legacy::tracking::TrackerBoosting::Params", ptr %3, i32 0, i32 0
  %9 = load i32, ptr %8, align 4, !tbaa !8
  %10 = mul nsw i32 %9, 10
  %11 = getelementptr inbounds nuw %"struct.cv::legacy::tracking::TrackerBoosting::Params", ptr %3, i32 0, i32 3
  %12 = load i32, ptr %11, align 4, !tbaa !14
  %13 = add nsw i32 %10, %12
  %14 = getelementptr inbounds nuw %"struct.cv::legacy::tracking::TrackerBoosting::Params", ptr %3, i32 0, i32 4
  store i32 %13, ptr %14, align 4, !tbaa !15
  ret void
}