; Function Attrs: mustprogress nofree norecurse nosync nounwind willreturn memory(argmem: write) uwtable
define void @_ZN2cv6legacy8tracking15TrackerBoosting6ParamsC2Ev(ptr noundef nonnull writeonly align 4 captures(none) dereferenceable(20) initializes((0, 20)) %0) unnamed_addr #3 align 2 {
  store i32 100, ptr %0, align 4, !tbaa !3
  %2 = getelementptr inbounds nuw i8, ptr %0, i64 4
  store float 0x3FEFAE1480000000, ptr %2, align 4, !tbaa !9
  %3 = getelementptr inbounds nuw i8, ptr %0, i64 8
  store float 0x3FFCCCCCC0000000, ptr %3, align 4, !tbaa !10
  %4 = getelementptr inbounds nuw i8, ptr %0, i64 12
  store i32 50, ptr %4, align 4, !tbaa !11
  %5 = getelementptr inbounds nuw i8, ptr %0, i64 16
  store i32 1050, ptr %5, align 4, !tbaa !12
  ret void
}